target datalayout = "e-m:e-p270:32:32-p271:32:32-p272:64:64-i64:64-i128:128-f80:128-n8:16:32:64-S128"
target triple = "x86_64-pc-linux-gnu"

%struct._address = type { i32, i32, ptr, ptr }
%struct._packet_info = type { ptr, ptr, i32, i32, %struct.nstime_t, %struct.nstime_t, %struct.nstime_t, i8, ptr, ptr, ptr, ptr, %struct._address, %struct._address, %struct._address, %struct._address, %struct._address, %struct._address, i32, ptr, i8, [3 x i8], %struct.anon, i32, i32, i32, i32, ptr, i8, ptr, ptr, i16, i16, i32, i32, i16, i32, i32, ptr, ptr, ptr, i8, i8, i16, i16, i16, i32, i16, i16, ptr, ptr, ptr, ptr, ptr, i32, i32 }
%struct.nstime_t = type { i64, i32 }
%struct.anon = type { i8, [3 x i8] }
%struct._frame_data = type <{ i32, i32, i32, i32, i32, [4 x i8], i64, ptr, ptr, ptr, i8, i16, [5 x i8], %struct.nstime_t, %struct.nstime_t, i32, i32 }>

@proto_rpc = internal global i32 0, align 4
@ett_rpc = internal global i32 0, align 4
@max_rpc_tcp_pdu_size = internal global i32 4194304, align 4
@rpc_find_fragment_start = internal global i8 0, align 1

; Function Attrs: inlinehint nounwind null_pointer_is_valid sspstrong uwtable
define internal i32 @pntoh32(ptr noundef %0) #9 {
  %2 = alloca ptr, align 8
  store ptr %0, ptr %2, align 8
  %3 = load ptr, ptr %2, align 8
  %4 = getelementptr i8, ptr %3, i64 0
  %5 = load i8, ptr %4, align 1
  %6 = zext i8 %5 to i32
  %7 = shl i32 %6, 24
  %8 = load ptr, ptr %2, align 8
  %9 = getelementptr i8, ptr %8, i64 1
  %10 = load i8, ptr %9, align 1
  %11 = zext i8 %10 to i32
  %12 = shl i32 %11, 16
  %13 = or i32 %7, %12
  %14 = load ptr, ptr %2, align 8
  %15 = getelementptr i8, ptr %14, i64 2
  %16 = load i8, ptr %15, align 1
  %17 = zext i8 %16 to i32
  %18 = shl i32 %17, 8
  %19 = or i32 %13, %18
  %20 = load ptr, ptr %2, align 8
  %21 = getelementptr i8, ptr %20, i64 3
  %22 = load i8, ptr %21, align 1
  %23 = zext i8 %22 to i32
  %24 = shl i32 %23, 0
  %25 = or i32 %19, %24
  ret i32 %25
}

; Function Attrs: null_pointer_is_valid sspstrong uwtable
define internal i32 @find_rpc_over_tcp_reply_start(ptr noundef %0, i32 noundef %1) #0 {
  %3 = alloca i32, align 4
  %4 = alloca ptr, align 8
  %5 = alloca i32, align 4
  %6 = alloca i32, align 4
  %7 = alloca i32, align 4
  %8 = alloca ptr, align 8
  %9 = alloca i32, align 4
  %10 = alloca i32, align 4
  %11 = alloca ptr, align 8
  %12 = alloca i32, align 4
  %13 = alloca i32, align 4
  %14 = alloca i32, align 4
  %15 = alloca i32, align 4
  %16 = alloca i32, align 4
  store ptr %0, ptr %4, align 8
  store i32 %1, ptr %5, align 4
  call void @llvm.lifetime.start.p0(i64 4, ptr %6) #18
  store i32 16, ptr %6, align 4
  call void @llvm.lifetime.start.p0(i64 4, ptr %7) #18
  store i32 12, ptr %7, align 4
  call void @llvm.lifetime.start.p0(i64 8, ptr %8) #18
  call void @llvm.lifetime.start.p0(i64 4, ptr %9) #18
  store i32 -1, ptr %9, align 4
  call void @llvm.lifetime.start.p0(i64 4, ptr %10) #18
  call void @llvm.lifetime.start.p0(i64 8, ptr %11) #18
  call void @llvm.lifetime.start.p0(i64 4, ptr %12) #18
  call void @llvm.lifetime.start.p0(i64 4, ptr %13) #18
  call void @llvm.lifetime.start.p0(i64 4, ptr %14) #18
  call void @llvm.lifetime.start.p0(i64 4, ptr %15) #18
  %17 = load ptr, ptr %4, align 8
  %18 = load i32, ptr %5, align 4
  %19 = call i32 @tvb_reported_length_remaining(ptr noundef %17, i32 noundef %18)
  store i32 %19, ptr %12, align 4
  store i32 12, ptr %10, align 4
  %20 = load i32, ptr %12, align 4
  %21 = load i32, ptr %10, align 4
  %22 = add i32 16, %21
  %23 = icmp slt i32 %20, %22
  br i1 %23, label %24, label %25

24:                                               ; preds = %2
  store i32 -1, ptr %3, align 4
  store i32 1, ptr %16, align 4
  br label %97

25:                                               ; preds = %2
  %26 = load ptr, ptr %4, align 8
  %27 = load i32, ptr %5, align 4
  %28 = load i32, ptr %12, align 4
  %29 = call ptr @tvb_get_ptr(ptr noundef %26, i32 noundef %27, i32 noundef %28)
  store ptr %29, ptr %8, align 8
  %30 = load ptr, ptr %8, align 8
  %31 = icmp eq ptr %30, null
  br i1 %31, label %32, label %33

32:                                               ; preds = %25
  store i32 -1, ptr %3, align 4
  store i32 1, ptr %16, align 4
  br label %97

33:                                               ; preds = %25
  br label %34

34:                                               ; preds = %93, %67, %33
  %35 = load i32, ptr %12, align 4
  %36 = load i32, ptr %10, align 4
  %37 = sub i32 %35, %36
  %38 = icmp sgt i32 %37, 16
  br i1 %38, label %39, label %96

39:                                               ; preds = %34
  %40 = load ptr, ptr %8, align 8
  %41 = load i32, ptr %10, align 4
  %42 = sext i32 %41 to i64
  %43 = getelementptr i8, ptr %40, i64 %42
  %44 = getelementptr i8, ptr %43, i64 16
  %45 = getelementptr i8, ptr %44, i64 -1
  store ptr %45, ptr %11, align 8
  store i32 16, ptr %15, align 4
  br label %46

46:                                               ; preds = %61, %39
  %47 = load i32, ptr %15, align 4
  %48 = icmp sgt i32 %47, 0
  br i1 %48, label %49, label %64

49:                                               ; preds = %46
  %50 = load ptr, ptr %11, align 8
  %51 = load i8, ptr %50, align 1
  %52 = zext i8 %51 to i32
  %53 = icmp ne i32 %52, 0
  br i1 %53, label %54, label %58

54:                                               ; preds = %49
  %55 = load i32, ptr %15, align 4
  %56 = load i32, ptr %10, align 4
  %57 = add i32 %56, %55
  store i32 %57, ptr %10, align 4
  store ptr null, ptr %11, align 8
  br label %64

58:                                               ; preds = %49
  %59 = load ptr, ptr %11, align 8
  %60 = getelementptr i8, ptr %59, i32 -1
  store ptr %60, ptr %11, align 8
  br label %61

61:                                               ; preds = %58
  %62 = load i32, ptr %15, align 4
  %63 = add i32 %62, -1
  store i32 %63, ptr %15, align 4
  br label %46, !llvm.loop !17

64:                                               ; preds = %54, %46
  %65 = load ptr, ptr %11, align 8
  %66 = icmp eq ptr %65, null
  br i1 %66, label %67, label %68

67:                                               ; preds = %64
  br label %34, !llvm.loop !18

68:                                               ; preds = %64
  %69 = load ptr, ptr %8, align 8
  %70 = load i32, ptr %10, align 4
  %71 = sext i32 %70 to i64
  %72 = getelementptr i8, ptr %69, i64 %71
  %73 = getelementptr i8, ptr %72, i64 -4
  %74 = call i32 @pntoh32(ptr noundef %73)
  store i32 %74, ptr %13, align 4
  %75 = load ptr, ptr %8, align 8
  %76 = load i32, ptr %10, align 4
  %77 = sext i32 %76 to i64
  %78 = getelementptr i8, ptr %75, i64 %77
  %79 = getelementptr i8, ptr %78, i64 -12
  %80 = call i32 @pntoh32(ptr noundef %79)
  store i32 %80, ptr %14, align 4
  %81 = load i32, ptr %13, align 4
  %82 = icmp eq i32 %81, 1
  br i1 %82, label %83, label %93

83:                                               ; preds = %68
  %84 = load i32, ptr %14, align 4
  %85 = and i32 %84, 2147483647
  %86 = load i32, ptr @max_rpc_tcp_pdu_size, align 4
  %87 = icmp ule i32 %85, %86
  br i1 %87, label %88, label %93

88:                                               ; preds = %83
  %89 = load i32, ptr %5, align 4
  %90 = load i32, ptr %10, align 4
  %91 = add i32 %89, %90
  %92 = sub i32 %91, 12
  store i32 %92, ptr %3, align 4
  store i32 1, ptr %16, align 4
  br label %97

93:                                               ; preds = %83, %68
  %94 = load i32, ptr %10, align 4
  %95 = add i32 %94, 1
  store i32 %95, ptr %10, align 4
  br label %34, !llvm.loop !18

96:                                               ; preds = %34
  store i32 -1, ptr %3, align 4
  store i32 1, ptr %16, align 4
  br label %97

97:                                               ; preds = %96, %88, %32, %24
  call void @llvm.lifetime.end.p0(i64 4, ptr %15) #18
  call void @llvm.lifetime.end.p0(i64 4, ptr %14) #18
  call void @llvm.lifetime.end.p0(i64 4, ptr %13) #18
  call void @llvm.lifetime.end.p0(i64 4, ptr %12) #18
  call void @llvm.lifetime.end.p0(i64 8, ptr %11) #18
  call void @llvm.lifetime.end.p0(i64 4, ptr %10) #18
  call void @llvm.lifetime.end.p0(i64 4, ptr %9) #18
  call void @llvm.lifetime.end.p0(i64 8, ptr %8) #18
  call void @llvm.lifetime.end.p0(i64 4, ptr %7) #18
  call void @llvm.lifetime.end.p0(i64 4, ptr %6) #18
  %98 = load i32, ptr %3, align 4
  ret i32 %98
}

; Function Attrs: null_pointer_is_valid sspstrong uwtable
define internal i32 @find_and_dissect_rpc_fragment(ptr noundef %0, i32 noundef %1, ptr noundef %2, ptr noundef %3, ptr noundef %4, i1 noundef zeroext %5, i32 noundef %6, i32 noundef %7, ptr noundef %8, ptr noundef %9) #0 {
  %11 = alloca i32, align 4
  %12 = alloca ptr, align 8
  %13 = alloca i32, align 4
  %14 = alloca ptr, align 8
  %15 = alloca ptr, align 8
  %16 = alloca ptr, align 8
  %17 = alloca i8, align 1
  %18 = alloca i32, align 4
  %19 = alloca i32, align 4
  %20 = alloca ptr, align 8
  %21 = alloca ptr, align 8
  %22 = alloca i32, align 4
  %23 = alloca i32, align 4
  %24 = alloca i32, align 4
  store ptr %0, ptr %12, align 8
  store i32 %1, ptr %13, align 4
  store ptr %2, ptr %14, align 8
  store ptr %3, ptr %15, align 8
  store ptr %4, ptr %16, align 8
  %25 = zext i1 %5 to i8
  store i8 %25, ptr %17, align 1
  store i32 %6, ptr %18, align 4
  store i32 %7, ptr %19, align 4
  store ptr %8, ptr %20, align 8
  store ptr %9, ptr %21, align 8
  call void @llvm.lifetime.start.p0(i64 4, ptr %22) #18
  call void @llvm.lifetime.start.p0(i64 4, ptr %23) #18
  %26 = load ptr, ptr %12, align 8
  %27 = load i32, ptr %13, align 4
  %28 = call i32 @find_rpc_over_tcp_reply_start(ptr noundef %26, i32 noundef %27)
  store i32 %28, ptr %22, align 4
  %29 = load i32, ptr %22, align 4
  %30 = icmp slt i32 %29, 0
  br i1 %30, label %31, label %32

31:                                               ; preds = %10
  store i32 0, ptr %11, align 4
  store i32 1, ptr %24, align 4
  br label %60

32:                                               ; preds = %10
  %33 = load ptr, ptr %12, align 8
  %34 = load i32, ptr %22, align 4
  %35 = load ptr, ptr %14, align 8
  %36 = load ptr, ptr %15, align 8
  %37 = load ptr, ptr %16, align 8
  %38 = load i8, ptr %17, align 1, !range !6, !noundef !7
  %39 = trunc i8 %38 to i1
  %40 = load i32, ptr %18, align 4
  %41 = load i32, ptr %19, align 4
  %42 = load ptr, ptr %20, align 8
  %43 = load ptr, ptr %21, align 8
  %44 = call i32 @dissect_rpc_fragment(ptr noundef %33, i32 noundef %34, ptr noundef %35, ptr noundef %36, ptr noundef %37, i1 noundef zeroext %39, i32 noundef %40, i32 noundef %41, i1 noundef zeroext true, ptr noundef %42, ptr noundef %43)
  store i32 %44, ptr %23, align 4
  %45 = load i32, ptr %23, align 4
  %46 = icmp eq i32 %45, 0
  br i1 %46, label %47, label %48

47:                                               ; preds = %32
  store i32 0, ptr %11, align 4
  store i32 1, ptr %24, align 4
  br label %60

48:                                               ; preds = %32
  %49 = load i32, ptr %23, align 4
  %50 = icmp sgt i32 %49, 0
  br i1 %50, label %51, label %57

51:                                               ; preds = %48
  %52 = load i32, ptr %22, align 4
  %53 = load i32, ptr %13, align 4
  %54 = sub i32 %52, %53
  %55 = load i32, ptr %23, align 4
  %56 = add i32 %55, %54
  store i32 %56, ptr %23, align 4
  br label %58

57:                                               ; preds = %48
  br label %58

58:                                               ; preds = %57, %51
  %59 = load i32, ptr %23, align 4
  store i32 %59, ptr %11, align 4
  store i32 1, ptr %24, align 4
  br label %60

60:                                               ; preds = %58, %47, %31
  call void @llvm.lifetime.end.p0(i64 4, ptr %23) #18
  call void @llvm.lifetime.end.p0(i64 4, ptr %22) #18
  %61 = load i32, ptr %11, align 4
  ret i32 %61
}

; Function Attrs: null_pointer_is_valid sspstrong uwtable
define internal zeroext i1 @dissect_rpc_tcp_common(ptr noundef %0, ptr noundef %1, ptr noundef %2, i1 noundef zeroext %3, ptr noundef %4, ptr noundef %5) #0 {
  %7 = alloca i1, align 1
  %8 = alloca ptr, align 8
  %9 = alloca ptr, align 8
  %10 = alloca ptr, align 8
  %11 = alloca i8, align 1
  %12 = alloca ptr, align 8
  %13 = alloca ptr, align 8
  %14 = alloca i32, align 4
  %15 = alloca i8, align 1
  %16 = alloca i8, align 1
  %17 = alloca i32, align 4
  %18 = alloca i32, align 4
  store ptr %0, ptr %8, align 8
  store ptr %1, ptr %9, align 8
  store ptr %2, ptr %10, align 8
  %19 = zext i1 %3 to i8
  store i8 %19, ptr %11, align 1
  store ptr %4, ptr %12, align 8
  store ptr %5, ptr %13, align 8
  call void @llvm.lifetime.start.p0(i64 4, ptr %14) #18
  store i32 0, ptr %14, align 4
  call void @llvm.lifetime.start.p0(i64 1, ptr %15) #18
  store i8 0, ptr %15, align 1
  call void @llvm.lifetime.start.p0(i64 1, ptr %16) #18
  store i8 1, ptr %16, align 1
  call void @llvm.lifetime.start.p0(i64 4, ptr %17) #18
  br label %20

20:                                               ; preds = %97, %6
  %21 = load ptr, ptr %8, align 8
  %22 = load i32, ptr %14, align 4
  %23 = call i32 @tvb_reported_length_remaining(ptr noundef %21, i32 noundef %22)
  %24 = icmp ne i32 %23, 0
  br i1 %24, label %25, label %101

25:                                               ; preds = %20
  %26 = load ptr, ptr %8, align 8
  %27 = load i32, ptr %14, align 4
  %28 = load ptr, ptr %9, align 8
  %29 = load ptr, ptr %10, align 8
  %30 = load i8, ptr %11, align 1, !range !6, !noundef !7
  %31 = trunc i8 %30 to i1
  %32 = load i32, ptr @proto_rpc, align 4
  %33 = load i32, ptr @ett_rpc, align 4
  %34 = load i8, ptr %16, align 1, !range !6, !noundef !7
  %35 = trunc i8 %34 to i1
  %36 = load ptr, ptr %12, align 8
  %37 = load ptr, ptr %13, align 8
  %38 = call i32 @dissect_rpc_fragment(ptr noundef %26, i32 noundef %27, ptr noundef %28, ptr noundef %29, ptr noundef @dissect_rpc_message, i1 noundef zeroext %31, i32 noundef %32, i32 noundef %33, i1 noundef zeroext %35, ptr noundef %36, ptr noundef %37)
  store i32 %38, ptr %17, align 4
  %39 = load i32, ptr %17, align 4
  %40 = icmp eq i32 %39, 0
  br i1 %40, label %41, label %59

41:                                               ; preds = %25
  %42 = load i8, ptr %16, align 1, !range !6, !noundef !7
  %43 = trunc i8 %42 to i1
  br i1 %43, label %44, label %59

44:                                               ; preds = %41
  %45 = load i8, ptr @rpc_find_fragment_start, align 1, !range !6, !noundef !7
  %46 = trunc i8 %45 to i1
  br i1 %46, label %47, label %59

47:                                               ; preds = %44
  %48 = load ptr, ptr %8, align 8
  %49 = load i32, ptr %14, align 4
  %50 = load ptr, ptr %9, align 8
  %51 = load ptr, ptr %10, align 8
  %52 = load i8, ptr %11, align 1, !range !6, !noundef !7
  %53 = trunc i8 %52 to i1
  %54 = load i32, ptr @proto_rpc, align 4
  %55 = load i32, ptr @ett_rpc, align 4
  %56 = load ptr, ptr %12, align 8
  %57 = load ptr, ptr %13, align 8
  %58 = call i32 @find_and_dissect_rpc_fragment(ptr noundef %48, i32 noundef %49, ptr noundef %50, ptr noundef %51, ptr noundef @dissect_rpc_message, i1 noundef zeroext %53, i32 noundef %54, i32 noundef %55, ptr noundef %56, ptr noundef %57)
  store i32 %58, ptr %17, align 4
  br label %59

59:                                               ; preds = %47, %44, %41, %25
  store i8 0, ptr %16, align 1
  %60 = load i32, ptr %17, align 4
  %61 = icmp slt i32 %60, 0
  br i1 %61, label %62, label %63

62:                                               ; preds = %59
  store i1 true, ptr %7, align 1
  store i32 1, ptr %18, align 4
  br label %104

63:                                               ; preds = %59
  %64 = load i32, ptr %17, align 4
  %65 = icmp eq i32 %64, 0
  br i1 %65, label %66, label %67

66:                                               ; preds = %63
  br label %101

67:                                               ; preds = %63
  %68 = load ptr, ptr %9, align 8
  %69 = getelementptr inbounds nuw %struct._packet_info, ptr %68, i32 0, i32 1
  %70 = load ptr, ptr %69, align 8
  call void @col_set_fence(ptr noundef %70, i32 noundef 25)
  %71 = load ptr, ptr %9, align 8
  %72 = getelementptr inbounds nuw %struct._packet_info, ptr %71, i32 0, i32 8
  %73 = load ptr, ptr %72, align 8
  %74 = getelementptr inbounds nuw %struct._frame_data, ptr %73, i32 0, i32 11
  %75 = load i16, ptr %74, align 1
  %76 = lshr i16 %75, 3
  %77 = and i16 %76, 1
  %78 = zext i16 %77 to i32
  %79 = icmp ne i32 %78, 0
  br i1 %79, label %97, label %80

80:                                               ; preds = %67
  %81 = load i32, ptr %17, align 4
  %82 = load ptr, ptr %8, align 8
  %83 = load i32, ptr %14, align 4
  %84 = call i32 @tvb_reported_length_remaining(ptr noundef %82, i32 noundef %83)
  %85 = icmp sgt i32 %81, %84
  br i1 %85, label %86, label %96

86:                                               ; preds = %80
  %87 = load ptr, ptr %9, align 8
  %88 = getelementptr inbounds nuw %struct._packet_info, ptr %87, i32 0, i32 35
  store i16 2, ptr %88, align 4
  %89 = load i32, ptr %17, align 4
  %90 = load ptr, ptr %8, align 8
  %91 = load i32, ptr %14, align 4
  %92 = call i32 @tvb_reported_length_remaining(ptr noundef %90, i32 noundef %91)
  %93 = sub i32 %89, %92
  %94 = load ptr, ptr %9, align 8
  %95 = getelementptr inbounds nuw %struct._packet_info, ptr %94, i32 0, i32 36
  store i32 %93, ptr %95, align 8
  br label %96

96:                                               ; preds = %86, %80
  br label %97

97:                                               ; preds = %96, %67
  %98 = load i32, ptr %17, align 4
  %99 = load i32, ptr %14, align 4
  %100 = add i32 %99, %98
  store i32 %100, ptr %14, align 4
  store i8 1, ptr %15, align 1
  br label %20, !llvm.loop !16

101:                                              ; preds = %66, %20
  %102 = load i8, ptr %15, align 1, !range !6, !noundef !7
  %103 = trunc i8 %102 to i1
  store i1 %103, ptr %7, align 1
  store i32 1, ptr %18, align 4
  br label %104

104:                                              ; preds = %101, %62
  call void @llvm.lifetime.end.p0(i64 4, ptr %17) #18
  call void @llvm.lifetime.end.p0(i64 1, ptr %16) #18
  call void @llvm.lifetime.end.p0(i64 1, ptr %15) #18
  call void @llvm.lifetime.end.p0(i64 4, ptr %14) #18
  %105 = load i1, ptr %7, align 1
  ret i1 %105
}