; Function Attrs: null_pointer_is_valid sspstrong uwtable
define internal fastcc noundef zeroext i1 @dissect_rpc_tcp_common(ptr noundef %0, ptr noundef %1, ptr noundef %2, i1 noundef zeroext %3, ptr noundef captures(address_is_null) %4, ptr noundef captures(address_is_null) %5) unnamed_addr #0 {
  %7 = tail call i32 @tvb_reported_length_remaining(ptr noundef %0, i32 noundef 0)
  %.not49 = icmp eq i32 %7, 0
  br i1 %.not49, label %.thread, label %.lr.ph

.lr.ph:                                           ; preds = %6
  %8 = getelementptr inbounds nuw i8, ptr %1, i64 8
  %9 = getelementptr inbounds nuw i8, ptr %1, i64 80
  %10 = getelementptr inbounds nuw i8, ptr %1, i64 340
  %11 = getelementptr inbounds nuw i8, ptr %1, i64 344
  br label %12

12:                                               ; preds = %.lr.ph, %106
  %.03452 = phi i1 [ true, %.lr.ph ], [ false, %106 ]
  %.03551 = phi i1 [ false, %.lr.ph ], [ true, %106 ]
  %.03650 = phi i32 [ 0, %.lr.ph ], [ %107, %106 ]
  %13 = load i32, ptr @proto_rpc, align 4
  %14 = load i32, ptr @ett_rpc, align 4
  %15 = tail call fastcc i32 @dissect_rpc_fragment(ptr noundef %0, i32 noundef %.03650, ptr noundef %1, ptr noundef %2, i1 noundef zeroext %3, i32 noundef %13, i32 noundef %14, i1 noundef zeroext %.03452, ptr noundef %4, ptr noundef %5)
  %16 = icmp eq i32 %15, 0
  %brmerge.not = and i1 %.03452, %16
  br i1 %brmerge.not, label %17, label %find_and_dissect_rpc_fragment.exit

17:                                               ; preds = %12
  %18 = load i8, ptr @rpc_find_fragment_start, align 1, !range !6, !noundef !7
  %19 = trunc nuw i8 %18 to i1
  br i1 %19, label %20, label %.thread

20:                                               ; preds = %17
  %21 = load i32, ptr @proto_rpc, align 4
  %22 = load i32, ptr @ett_rpc, align 4
  %23 = tail call i32 @tvb_reported_length_remaining(ptr noundef %0, i32 noundef %.03650)
  %24 = icmp slt i32 %23, 28
  br i1 %24, label %.thread, label %25

25:                                               ; preds = %20
  %26 = tail call ptr @tvb_get_ptr(ptr noundef %0, i32 noundef %.03650, i32 noundef %23)
  %27 = icmp eq ptr %26, null
  br i1 %27, label %.thread, label %.preheader.i.i

.preheader.i.i:                                   ; preds = %25
  %invariant.gep.i.i = getelementptr i8, ptr %26, i64 15
  %.not42.i.i = icmp eq i32 %23, 28
  br i1 %.not42.i.i, label %.thread, label %.lr.ph.i.i

.lr.ph.i.i:                                       ; preds = %.preheader.i.i
  %28 = load i32, ptr @max_rpc_tcp_pdu_size, align 4
  %scevgep.i.i = getelementptr i8, ptr %26, i64 -1
  br label %29

29:                                               ; preds = %.backedge.i.i, %.lr.ph.i.i
  %.02941.i.i = phi i32 [ 12, %.lr.ph.i.i ], [ %.029.be.i.i, %.backedge.i.i ]
  %30 = sext i32 %.02941.i.i to i64
  %gep.i.i = getelementptr i8, ptr %invariant.gep.i.i, i64 %30
  %scevgep45.i.i = getelementptr i8, ptr %scevgep.i.i, i64 %30
  br label %31

31:                                               ; preds = %34, %29
  %.040.i.i = phi i32 [ 16, %29 ], [ %36, %34 ]
  %.03039.i.i = phi ptr [ %gep.i.i, %29 ], [ %35, %34 ]
  %32 = load i8, ptr %.03039.i.i, align 1
  %.not.i.i = icmp eq i8 %32, 0
  br i1 %.not.i.i, label %34, label %.loopexit.thread.i.i

.loopexit.thread.i.i:                             ; preds = %31
  %33 = add i32 %.040.i.i, %.02941.i.i
  br label %.backedge.i.i

34:                                               ; preds = %31
  %35 = getelementptr i8, ptr %.03039.i.i, i64 -1
  %36 = add nsw i32 %.040.i.i, -1
  %37 = icmp ugt i32 %.040.i.i, 1
  br i1 %37, label %31, label %.loopexit.i.i, !llvm.loop !16

.loopexit.i.i:                                    ; preds = %34
  %38 = icmp eq ptr %scevgep45.i.i, null
  br i1 %38, label %.backedge.i.i, label %39

39:                                               ; preds = %.loopexit.i.i
  %40 = getelementptr i8, ptr %26, i64 %30
  %41 = getelementptr i8, ptr %40, i64 -4
  %42 = load i8, ptr %41, align 1
  %43 = zext i8 %42 to i32
  %44 = shl nuw i32 %43, 24
  %45 = getelementptr i8, ptr %40, i64 -3
  %46 = load i8, ptr %45, align 1
  %47 = zext i8 %46 to i32
  %48 = shl nuw nsw i32 %47, 16
  %49 = or disjoint i32 %48, %44
  %50 = getelementptr i8, ptr %40, i64 -2
  %51 = load i8, ptr %50, align 1
  %52 = zext i8 %51 to i32
  %53 = shl nuw nsw i32 %52, 8
  %54 = or disjoint i32 %49, %53
  %55 = getelementptr i8, ptr %40, i64 -1
  %56 = load i8, ptr %55, align 1
  %57 = zext i8 %56 to i32
  %58 = or disjoint i32 %54, %57
  %59 = icmp eq i32 %58, 1
  br i1 %59, label %60, label %77

60:                                               ; preds = %39
  %61 = getelementptr i8, ptr %40, i64 -11
  %62 = load i8, ptr %61, align 1
  %63 = zext i8 %62 to i32
  %64 = shl nuw nsw i32 %63, 16
  %65 = getelementptr i8, ptr %40, i64 -12
  %66 = load i8, ptr %65, align 1
  %67 = zext i8 %66 to i32
  %68 = shl nuw i32 %67, 24
  %69 = getelementptr i8, ptr %40, i64 -10
  %70 = load i8, ptr %69, align 1
  %71 = zext i8 %70 to i32
  %72 = shl nuw nsw i32 %71, 8
  %73 = getelementptr i8, ptr %40, i64 -9
  %74 = load i8, ptr %73, align 1
  %75 = zext i8 %74 to i32
  %.masked35.i.i = and i32 %68, 2130706432
  %.masked34.i.i = or disjoint i32 %.masked35.i.i, %64
  %.masked.i.i = or disjoint i32 %.masked34.i.i, %72
  %76 = or disjoint i32 %.masked.i.i, %75
  %.not33.i.i = icmp ugt i32 %76, %28
  br i1 %.not33.i.i, label %77, label %find_rpc_over_tcp_reply_start.exit.i

77:                                               ; preds = %60, %39
  %78 = add i32 %.02941.i.i, 1
  br label %.backedge.i.i

.backedge.i.i:                                    ; preds = %77, %.loopexit.i.i, %.loopexit.thread.i.i
  %.029.be.i.i = phi i32 [ %.02941.i.i, %.loopexit.i.i ], [ %78, %77 ], [ %33, %.loopexit.thread.i.i ]
  %79 = sub i32 %23, %.029.be.i.i
  %80 = icmp sgt i32 %79, 16
  br i1 %80, label %29, label %.thread, !llvm.loop !17

find_rpc_over_tcp_reply_start.exit.i:             ; preds = %60
  %81 = add i32 %.03650, -12
  %82 = add i32 %81, %.02941.i.i
  %83 = icmp slt i32 %82, 0
  br i1 %83, label %.thread, label %84

84:                                               ; preds = %find_rpc_over_tcp_reply_start.exit.i
  %85 = tail call fastcc i32 @dissect_rpc_fragment(ptr noundef %0, i32 noundef %82, ptr noundef %1, ptr noundef %2, i1 noundef zeroext %3, i32 noundef %21, i32 noundef %22, i1 noundef zeroext true, ptr noundef %4, ptr noundef %5)
  %86 = icmp eq i32 %85, 0
  br i1 %86, label %.thread, label %87

87:                                               ; preds = %84
  %88 = icmp sgt i32 %85, 0
  %89 = sub i32 %82, %.03650
  %90 = select i1 %88, i32 %89, i32 0
  %.0.i = add i32 %90, %85
  br label %find_and_dissect_rpc_fragment.exit

find_and_dissect_rpc_fragment.exit:               ; preds = %87, %12
  %.0 = phi i32 [ %15, %12 ], [ %.0.i, %87 ]
  %91 = icmp slt i32 %.0, 0
  br i1 %91, label %.thread, label %92

92:                                               ; preds = %find_and_dissect_rpc_fragment.exit
  %93 = icmp eq i32 %.0, 0
  br i1 %93, label %.thread, label %94

94:                                               ; preds = %92
  %95 = load ptr, ptr %8, align 8
  tail call void @col_set_fence(ptr noundef %95, i32 noundef 25)
  %96 = load ptr, ptr %9, align 8
  %97 = getelementptr inbounds nuw i8, ptr %96, i64 57
  %98 = load i16, ptr %97, align 1
  %99 = and i16 %98, 8
  %.not39 = icmp eq i16 %99, 0
  br i1 %.not39, label %100, label %106

100:                                              ; preds = %94
  %101 = tail call i32 @tvb_reported_length_remaining(ptr noundef %0, i32 noundef %.03650)
  %102 = icmp sgt i32 %.0, %101
  br i1 %102, label %103, label %106

103:                                              ; preds = %100
  store i16 2, ptr %10, align 4
  %104 = tail call i32 @tvb_reported_length_remaining(ptr noundef %0, i32 noundef %.03650)
  %105 = sub i32 %.0, %104
  store i32 %105, ptr %11, align 8
  br label %106

106:                                              ; preds = %100, %103, %94
  %107 = add i32 %.0, %.03650
  %108 = tail call i32 @tvb_reported_length_remaining(ptr noundef %0, i32 noundef %107)
  %.not = icmp eq i32 %108, 0
  br i1 %.not, label %.thread, label %12, !llvm.loop !18

.thread:                                          ; preds = %find_and_dissect_rpc_fragment.exit, %92, %106, %.preheader.i.i, %25, %20, %84, %find_rpc_over_tcp_reply_start.exit.i, %17, %.backedge.i.i, %6
  %.037 = phi i1 [ false, %6 ], [ %.03551, %.backedge.i.i ], [ true, %find_and_dissect_rpc_fragment.exit ], [ %.03551, %92 ], [ true, %106 ], [ %.03551, %.preheader.i.i ], [ %.03551, %25 ], [ %.03551, %20 ], [ %.03551, %84 ], [ %.03551, %find_rpc_over_tcp_reply_start.exit.i ], [ %.03551, %17 ]
  ret i1 %.037
}